target datalayout = "e-m:e-p270:32:32-p271:32:32-p272:64:64-i64:64-i128:128-f80:128-n8:16:32:64-S128"
target triple = "x86_64-unknown-linux-gnu"

; Function Attrs: nounwind sspstrong uwtable
define dso_local zeroext i1 @ram_write_tracking_available() #0 {
entry:
  %uffd_features = alloca i64, align 8
  %res = alloca i32, align 4
  %call = call i32 @uffd_query_features(ptr noundef %uffd_features)
  store i32 %call, ptr %res, align 4
  %0 = load i32, ptr %res, align 4
  %cmp = icmp eq i32 %0, 0
  br i1 %cmp, label %land.rhs, label %land.end

land.rhs:                                         ; preds = %entry
  %1 = load i64, ptr %uffd_features, align 8
  %and = and i64 %1, 1
  %cmp1 = icmp ne i64 %and, 0
  br label %land.end

land.end:                                         ; preds = %land.rhs, %entry
  %2 = phi i1 [ false, %entry ], [ %cmp1, %land.rhs ]
  ret i1 %2
}