; Function Attrs: nounwind sspstrong uwtable
define dso_local zeroext i1 @ram_write_tracking_available() local_unnamed_addr #0 {
entry:
  %uffd_features = alloca i64, align 8
  %call = call i32 @uffd_query_features(ptr noundef nonnull %uffd_features) #18
  %cmp = icmp eq i32 %call, 0
  %0 = load i64, ptr %uffd_features, align 8
  %and = and i64 %0, 1
  %cmp1 = icmp ne i64 %and, 0
  %1 = select i1 %cmp, i1 %cmp1, i1 false
  ret i1 %1
}